target datalayout = "e-m:e-p270:32:32-p271:32:32-p272:64:64-i64:64-i128:128-f80:128-n8:16:32:64-S128"
target triple = "x86_64-pc-linux-gnu"

%struct.redisServer = type { i32, i64, ptr, ptr, ptr, i32, i32, i32, i32, i32, ptr, ptr, ptr, ptr, ptr, i32, i32, i32, i32, i64, i32, i32, i32, i32, ptr, i32, i32, [41 x i8], i32, i64, i32, i32, i32, ptr, ptr, i32, i32, i64, ptr, ptr, ptr, ptr, [2 x i32], i32, i32, i32, i32, i32, i32, [16 x ptr], i32, ptr, ptr, i32, [8 x %struct.connListener], i32, %struct.connListener, ptr, ptr, ptr, ptr, ptr, ptr, ptr, ptr, ptr, ptr, i32, ptr, i32, ptr, [3 x %struct.pause_event], [256 x i8], ptr, i64, i32, i32, [128 x i32], i32, i32, i64, i32, i32, i32, i32, i32, i64, i64, i64, i64, i64, i64, i64, i64, i64, i64, double, i64, i64, i64, i64, i64, i64, i64, i64, i64, i64, i64, i64, i64, i64, i64, i64, i64, i64, i64, i64, i64, double, i64, i64, i64, i64, i64, ptr, i64, i64, i64, %struct.malloc_stats, i64, i64, i64, i64, i64, i64, i64, i64, i64, i64, i64, i64, double, [4 x i64], i64, i64, i64, i64, [128 x i64], [128 x i64], i64, i64, [7 x %struct.anon], i64, i64, i64, i64, i64, i64, [4 x %struct.durationStats], i32, i32, i32, i32, i32, i32, i32, i32, i32, i32, i32, i32, i64, i32, i32, i32, i32, i64, i64, i32, i32, i32, i32, i32, ptr, [3 x %struct.clientBufferLimitsConfig], i32, i32, i32, ptr, i32, i32, i32, i32, i32, i32, ptr, ptr, i32, i32, i64, i64, i64, i64, i64, i32, i32, ptr, i32, i32, i64, i64, i64, i64, i64, i32, i32, i64, i32, i32, i32, i32, i32, i32, i32, i32, ptr, i32, i64, i64, i64, i64, i32, ptr, i32, ptr, i32, i32, i32, i64, i64, i64, i64, i32, i32, i32, i32, i32, i32, ptr, i32, i32, ptr, i32, i32, i32, [2 x i32], i32, %struct.redisOpArray, i32, ptr, i32, ptr, i32, i32, i32, i32, i32, i32, i32, [41 x i8], [41 x i8], i64, i64, i64, i64, i32, i32, ptr, i64, i64, %struct.replDataBuf, i64, i64, i32, i32, i32, i32, i32, i32, i32, i32, i32, i64, ptr, i64, ptr, ptr, ptr, i32, i32, ptr, ptr, i32, i32, i32, i64, i64, i64, i64, ptr, ptr, i32, ptr, i64, i32, i32, i32, i64, i32, i32, i32, i32, ptr, i32, i32, [41 x i8], i64, i32, ptr, i32, i32, i64, i64, i32, i32, i32, i32, i32, i64, [3 x i32], i32, i32, i32, [10 x i32], ptr, ptr, i32, i64, ptr, ptr, i32, i32, i32, i32, i64, i64, i64, i64, i64, i64, i64, i64, i64, i64, i32, i32, i64, i64, i32, i64, i64, i64, i64, i64, ptr, ptr, i32, ptr, i32, i32, i32, i32, i64, i64, ptr, ptr, i32, i32, i32, i32, i32, ptr, ptr, ptr, i32, i32, i32, i32, i32, i32, i32, i64, i32, i32, i64, i32, i32, i32, i32, i32, i32, i32, i64, ptr, ptr, i64, ptr, i32, %struct.aclInfo, i32, i64, i32, i32, i32, %struct.redisTLSContextConfig, ptr, ptr, ptr, ptr, ptr, i64, i32, ptr, i32, i32, i32, i64, i32, ptr }
%struct.connListener = type { [16 x i32], i32, ptr, i32, i32, ptr, ptr }
%struct.pause_event = type { i32, i64 }
%struct.malloc_stats = type { i64, i64, i64, i64, i64, i64, i64, i64, i64, i64, i64 }
%struct.anon = type { i64, i64, [16 x i64], i32 }
%struct.durationStats = type { i64, i64, i64 }
%struct.clientBufferLimitsConfig = type { i64, i64, i64 }
%struct.redisOpArray = type { ptr, i32, i32 }
%struct.replDataBuf = type { ptr, i64, i64, i64, i64 }
%struct.aclInfo = type { i64, i64, i64, i64 }
%struct.redisTLSContextConfig = type { ptr, ptr, ptr, ptr, ptr, ptr, ptr, ptr, ptr, ptr, ptr, ptr, i32, i32, i32, i32 }
%struct.client = type { i64, i64, ptr, i8, i8, i8, i8, i32, ptr, ptr, ptr, ptr, ptr, i64, i64, i32, ptr, i32, i32, ptr, i64, ptr, ptr, ptr, ptr, ptr, i32, i32, i64, ptr, i64, ptr, i64, i64, i64, i32, ptr, i64, i64, i32, i32, i32, i32, i64, i64, ptr, i64, i64, i64, i64, i64, i64, i64, i64, [41 x i8], i32, ptr, i32, i32, i64, %struct.multiState, %struct.blockingState, i64, ptr, ptr, ptr, ptr, ptr, ptr, ptr, ptr, ptr, ptr, ptr, ptr, ptr, ptr, i64, ptr, i64, i32, ptr, ptr, ptr, i64, %struct.listNode, i64, i64, i32, i64, ptr }
%struct.multiState = type { ptr, i32, i32, i32, i64, i32 }
%struct.blockingState = type { i32, i64, i32, ptr, i32, i32, i64, ptr, ptr, i64 }
%struct.listNode = type { ptr, ptr, ptr }

@server = external global %struct.redisServer, align 8
@.str = private unnamed_addr constant [20 x i8] c"Closing idle client\00", align 1

; Function Attrs: nounwind uwtable
define dso_local i32 @clientsCronHandleTimeout(ptr noundef %0, i64 noundef %1) #0 {
  %3 = alloca i32, align 4
  %4 = alloca ptr, align 8
  %5 = alloca i64, align 8
  %6 = alloca i64, align 8
  %7 = alloca i32, align 4
  store ptr %0, ptr %4, align 8, !tbaa !5
  store i64 %1, ptr %5, align 8, !tbaa !10
  call void @llvm.lifetime.start.p0(i64 8, ptr %6) #5
  %8 = load i64, ptr %5, align 8, !tbaa !10
  %9 = sdiv i64 %8, 1000
  store i64 %9, ptr %6, align 8, !tbaa !32
  %10 = load i32, ptr getelementptr inbounds nuw (%struct.redisServer, ptr @server, i32 0, i32 161), align 8, !tbaa !33
  %11 = icmp ne i32 %10, 0
  br i1 %11, label %12, label %52

12:                                               ; preds = %2
  %13 = load ptr, ptr %4, align 8, !tbaa !5
  %14 = getelementptr inbounds nuw %struct.client, ptr %13, i32 0, i32 1
  %15 = load i64, ptr %14, align 8, !tbaa !12
  %16 = and i64 %15, 1
  %17 = icmp ne i64 %16, 0
  br i1 %17, label %52, label %18

18:                                               ; preds = %12
  %19 = load ptr, ptr %4, align 8, !tbaa !5
  %20 = call i32 @mustObeyClient(ptr noundef %19)
  %21 = icmp ne i32 %20, 0
  br i1 %21, label %52, label %22

22:                                               ; preds = %18
  %23 = load ptr, ptr %4, align 8, !tbaa !5
  %24 = getelementptr inbounds nuw %struct.client, ptr %23, i32 0, i32 1
  %25 = load i64, ptr %24, align 8, !tbaa !12
  %26 = and i64 %25, 16
  %27 = icmp ne i64 %26, 0
  br i1 %27, label %52, label %28

28:                                               ; preds = %22
  %29 = load ptr, ptr %4, align 8, !tbaa !5
  %30 = getelementptr inbounds nuw %struct.client, ptr %29, i32 0, i32 1
  %31 = load i64, ptr %30, align 8, !tbaa !12
  %32 = and i64 %31, 262144
  %33 = icmp ne i64 %32, 0
  br i1 %33, label %52, label %34

34:                                               ; preds = %28
  %35 = load i64, ptr %6, align 8, !tbaa !32
  %36 = load ptr, ptr %4, align 8, !tbaa !5
  %37 = getelementptr inbounds nuw %struct.client, ptr %36, i32 0, i32 37
  %38 = load i64, ptr %37, align 8, !tbaa !53
  %39 = sub nsw i64 %35, %38
  %40 = load i32, ptr getelementptr inbounds nuw (%struct.redisServer, ptr @server, i32 0, i32 161), align 8, !tbaa !33
  %41 = sext i32 %40 to i64
  %42 = icmp sgt i64 %39, %41
  br i1 %42, label %43, label %52

43:                                               ; preds = %34
  br label %44

44:                                               ; preds = %43
  %45 = load i32, ptr getelementptr inbounds nuw (%struct.redisServer, ptr @server, i32 0, i32 159), align 8, !tbaa !54
  %46 = icmp slt i32 1, %45
  br i1 %46, label %47, label %48

47:                                               ; preds = %44
  br label %50

48:                                               ; preds = %44
  call void (i32, ptr, ...) @_serverLog(i32 noundef 1, ptr noundef @.str)
  br label %49

49:                                               ; preds = %48
  br label %50

50:                                               ; preds = %49, %47
  %51 = load ptr, ptr %4, align 8, !tbaa !5
  call void @freeClient(ptr noundef %51)
  store i32 1, ptr %3, align 4
  store i32 1, ptr %7, align 4
  br label %71

52:                                               ; preds = %34, %28, %22, %18, %12, %2
  %53 = load ptr, ptr %4, align 8, !tbaa !5
  %54 = getelementptr inbounds nuw %struct.client, ptr %53, i32 0, i32 1
  %55 = load i64, ptr %54, align 8, !tbaa !12
  %56 = and i64 %55, 16
  %57 = icmp ne i64 %56, 0
  br i1 %57, label %58, label %69

58:                                               ; preds = %52
  %59 = load i32, ptr getelementptr inbounds nuw (%struct.redisServer, ptr @server, i32 0, i32 380), align 8, !tbaa !55
  %60 = icmp ne i32 %59, 0
  br i1 %60, label %61, label %68

61:                                               ; preds = %58
  %62 = load ptr, ptr %4, align 8, !tbaa !5
  %63 = call i32 @clusterRedirectBlockedClientIfNeeded(ptr noundef %62)
  %64 = icmp ne i32 %63, 0
  br i1 %64, label %65, label %67

65:                                               ; preds = %61
  %66 = load ptr, ptr %4, align 8, !tbaa !5
  call void @unblockClientOnError(ptr noundef %66, ptr noundef null)
  br label %67

67:                                               ; preds = %65, %61
  br label %68

68:                                               ; preds = %67, %58
  br label %69

69:                                               ; preds = %68, %52
  br label %70

70:                                               ; preds = %69
  store i32 0, ptr %3, align 4
  store i32 1, ptr %7, align 4
  br label %71

71:                                               ; preds = %70, %50
  call void @llvm.lifetime.end.p0(i64 8, ptr %6) #5
  %72 = load i32, ptr %3, align 4
  ret i32 %72
}