; Function Attrs: nounwind uwtable
define dso_local range(i32 0, 2) i32 @clientsCronHandleTimeout(ptr noundef %0, i64 noundef %1) local_unnamed_addr #0 {
  %3 = sdiv i64 %1, 1000
  %4 = load i32, ptr getelementptr inbounds nuw (i8, ptr @server, i64 6296), align 8, !tbaa !29
  %.not = icmp eq i32 %4, 0
  br i1 %.not, label %26, label %5

5:                                                ; preds = %2
  %6 = getelementptr inbounds nuw i8, ptr %0, i64 8
  %7 = load i64, ptr %6, align 8, !tbaa !5
  %8 = and i64 %7, 1
  %.not12 = icmp eq i64 %8, 0
  br i1 %.not12, label %9, label %26

9:                                                ; preds = %5
  %10 = tail call i32 @mustObeyClient(ptr noundef nonnull %0) #4
  %.not13 = icmp eq i32 %10, 0
  br i1 %.not13, label %11, label %26

11:                                               ; preds = %9
  %12 = load i64, ptr %6, align 8, !tbaa !5
  %13 = and i64 %12, 262160
  %or.cond17 = icmp eq i64 %13, 0
  br i1 %or.cond17, label %14, label %26

14:                                               ; preds = %11
  %15 = getelementptr inbounds nuw i8, ptr %0, i64 248
  %16 = load i64, ptr %15, align 8, !tbaa !50
  %17 = sub nsw i64 %3, %16
  %18 = load i32, ptr getelementptr inbounds nuw (i8, ptr @server, i64 6296), align 8, !tbaa !29
  %19 = sext i32 %18 to i64
  %20 = icmp sgt i64 %17, %19
  br i1 %20, label %21, label %26

21:                                               ; preds = %14
  %22 = load i32, ptr getelementptr inbounds nuw (i8, ptr @server, i64 6288), align 8, !tbaa !51
  %23 = icmp sgt i32 %22, 1
  br i1 %23, label %25, label %24

24:                                               ; preds = %21
  tail call void (i32, ptr, ...) @_serverLog(i32 noundef 1, ptr noundef nonnull @.str) #4
  br label %25

25:                                               ; preds = %21, %24
  tail call void @freeClient(ptr noundef nonnull %0) #4
  br label %36

26:                                               ; preds = %14, %11, %9, %5, %2
  %27 = getelementptr inbounds nuw i8, ptr %0, i64 8
  %28 = load i64, ptr %27, align 8, !tbaa !5
  %29 = and i64 %28, 16
  %30 = icmp ne i64 %29, 0
  %31 = load i32, ptr getelementptr inbounds nuw (i8, ptr @server, i64 7888), align 8
  %32 = icmp ne i32 %31, 0
  %or.cond = select i1 %30, i1 %32, i1 false
  br i1 %or.cond, label %33, label %36

33:                                               ; preds = %26
  %34 = tail call i32 @clusterRedirectBlockedClientIfNeeded(ptr noundef nonnull %0) #4
  %.not16 = icmp eq i32 %34, 0
  br i1 %.not16, label %36, label %35

35:                                               ; preds = %33
  tail call void @unblockClientOnError(ptr noundef nonnull %0, ptr noundef null) #4
  br label %36

36:                                               ; preds = %35, %33, %26, %25
  %.0 = phi i32 [ 1, %25 ], [ 0, %26 ], [ 0, %33 ], [ 0, %35 ]
  ret i32 %.0
}